Instrumentation level: Front-end
Total functions: 14164
Maximum function count: 41547035
Maximum internal block count: 31626690
Top 100 functions with the largest internal block counts: 
  _ZN5basal9exception12throw_unlessEbPKcm, max count = 41547035
  _ZNK6linalg6matrixixEm, max count = 39714419
  _ZNK8geometry5pointILm4EEixEi, max count = 39629635
  _ZN8geometry5pointILm4EEixEi, max count = 37897191
  _ZN5basal9exception8throw_ifEbPKcm, max count = 31876534
  _ZN8geometry9operatorsmlILm4EEENS_5pointIXT_EEERKN6linalg6matrixERKS3_, max count = 31626690
  _ZN8geometry5pointILm4EE4zeroEv, max count = 23142040
  _ZNKSt3__116__variant_detail6__baseILNS0_6_TraitE1EJNS_9monostateEN8geometry6point_ILm3EEENS_6vectorIS6_NS_9allocatorIS6_EEEENS4_2R34lineENS4_5planeEEE5indexB8ue170006Ev, max count = 22370480
  _ZN8geometry5pointILm3EE4zeroEv, max count = 22103748
  _ZN5basal8literalsli2_pEe, max count = 20501907
  _ZNK8geometry7vector_IdLm3EEixEm, max count = 19444323
  _ZNKSt3__17variantIJNS_9monostateEN8geometry6point_ILm3EEENS_6vectorIS4_NS_9allocatorIS4_EEEENS2_2R34lineENS2_5planeEEE5indexB8ue170006Ev, max count = 16261835
  _ZNK8geometry5pointILm3EEixEi, max count = 13988931
  _ZN8geometry8multiplyERKN6linalg6matrixERKNS_7vector_IdLm3EEE, max count = 12525286
  _ZNSt3__112__to_addressB8ue170006IdEEPT_S2_, max count = 10693595
  _ZN5basal8literalsli2_pEe, max count = 9840672
  _ZN8geometry7vector_IdLm3EEixEm, max count = 9196059
  _ZN8geometry7vector_IdLm3EEmLEd, max count = 8881983
  _ZN8geometry5pointILm3EEpLIdLm3EEERS1_RKNS_7vector_IT_XT0_EEE, max count = 8702077
  _ZNKSt3__16vectorIdNS_9allocatorIdEEE4dataB8ue170006Ev, max count = 8622280
  _ZNSt3__112__to_addressB8ue170006INS_7variantIJNS_9monostateEN8geometry6point_ILm3EEENS_6vectorIS5_NS_9allocatorIS5_EEEENS3_2R34lineENS3_5planeEEEEEEPT_SF_, max count = 7745592
  _ZN8geometry3dotERKNS_7vector_IdLm3EEES3_, max count = 7671150
  _ZN8geometry7vector_IdLm3EEC2Ev, max count = 7616277
  _ZN8geometry7vector_IdLm3EED2Ev, max count = 7604258
  _ZNKSt3__116__variant_detail6__baseILNS0_6_TraitE1EJNS_9monostateEN8geometry6point_ILm3EEENS_6vectorIS6_NS_9allocatorIS6_EEEENS4_2R34lineENS4_5planeEEE22valueless_by_exceptionB8ue170006Ev, max count = 7401526
  _ZNKSt3__16__lessIvvEclB8ue170006IddEEbRKT_RKT0_, max count = 7398606
  _ZN8geometry5pointILm3EEC2Ev, max count = 7382165
  _ZN8geometry5pointILm3EED2Ev, max count = 6259579
  _ZNKSt3__16vectorINS_7variantIJNS_9monostateEN8geometry6point_ILm3EEENS0_IS5_NS_9allocatorIS5_EEEENS3_2R34lineENS3_5planeEEEENS6_ISC_EEE4dataB8ue170006Ev, max count = 6180200
  _ZN8geometrymiERKNS_6point_ILm3EEES3_, max count = 6099983
  _ZN8geometry5pointILm4EEC2Ev, max count = 5780111
  _ZNKSt3__116reverse_iteratorIPNS_7variantIJNS_9monostateEN8geometry6point_ILm3EEENS_6vectorIS5_NS_9allocatorIS5_EEEENS3_2R34lineENS3_5planeEEEEE4baseB8ue170006Ev, max count = 5682127
  _ZNKSt3__122__compressed_pair_elemIPdLi0ELb0EE5__getB8ue170006Ev, max count = 5516692
  _ZNKSt3__16vectorIdNS_9allocatorIdEEE8capacityB8ue170006Ev, max count = 5410704
  _ZNKSt3__16vectorIdNS_9allocatorIdEEE9__end_capB8ue170006Ev, max count = 5388215
  _ZNKSt3__117__compressed_pairIPdNS_9allocatorIdEEE5firstB8ue170006Ev, max count = 5387985
  _ZN8geometry7vector_IdLm3EEC1ERKS1_, max count = 5363741
  _ZN8geometry6point_ILm3EEC2Ev, max count = 5294103
  _ZNK8geometry4ray_ILm3EE9directionEv, max count = 5230892
  _ZNSt3__116__variant_detail6__dtorINS0_8__traitsIJNS_9monostateEN8geometry6point_ILm3EEENS_6vectorIS6_NS_9allocatorIS6_EEEENS4_2R34lineENS4_5planeEEEELNS0_6_TraitE1EE9__destroyB8ue170006Ev, max count = 5122463
  _ZNRSt3__116__variant_detail6__baseILNS0_6_TraitE1EJNS_9monostateEN8geometry6point_ILm3EEENS_6vectorIS6_NS_9allocatorIS6_EEEENS4_2R34lineENS4_5planeEEE9__as_baseB8ue170006Ev, max count = 5046076
  _ZNKSt3__16vectorIdNS_9allocatorIdEEE4sizeB8ue170006Ev, max count = 4806069
  _ZNSt3__116__variant_detail8__access6__base9__get_altB8ue170006ILm0ERNS0_6__baseILNS0_6_TraitE1EJNS_9monostateEN8geometry6point_ILm3EEENS_6vectorIS9_NS_9allocatorIS9_EEEENS7_2R34lineENS7_5planeEEEEEEODaOT0_, max count = 4673802
  _ZNSt3__116__variant_detail8__access7__union9__get_altB8ue170006IRNS0_7__unionILNS0_6_TraitE1ELm0EJNS_9monostateEN8geometry6point_ILm3EEENS_6vectorIS9_NS_9allocatorIS9_EEEENS7_2R34lineENS7_5planeEEEEEEODaOT_NS_16in_place_index_tILm0EEE, max count = 4672543
  _ZNKSt3__16vectorINS_7variantIJNS_9monostateEN8geometry6point_ILm3EEENS0_IS5_NS_9allocatorIS5_EEEENS3_2R34lineENS3_5planeEEEENS6_ISC_EEE4sizeB8ue170006Ev, max count = 4366690
  _Z3absB8ue170006d, max count = 4361488
  _ZNSt3__119__holds_alternativeB8ue170006ILm1EJNS_9monostateEN8geometry6point_ILm3EEENS_6vectorIS4_NS_9allocatorIS4_EEEENS2_2R34lineENS2_5planeEEEEbRKNS_7variantIJDpT0_EEE, max count = 4334418
  _ZNKSt3__116reverse_iteratorIPNS_7variantIJNS_9monostateEN8geometry6point_ILm3EEENS_6vectorIS5_NS_9allocatorIS5_EEEENS3_2R34lineENS3_5planeEEEEEdeB8ue170006Ev, max count = 4265906
  _ZNK8geometry4ray_ILm3EE8locationEv, max count = 4248752
  _ZNSt3__117holds_alternativeB8ue170006IN8geometry6point_ILm3EEEJNS_9monostateES3_NS_6vectorIS3_NS_9allocatorIS3_EEEENS1_2R34lineENS1_5planeEEEEbRKNS_7variantIJDpT0_EEE, max count = 4197144
  _ZN8geometry8get_typeERKNSt3__17variantIJNS0_9monostateENS_6point_ILm3EEENS0_6vectorIS4_NS0_9allocatorIS4_EEEENS_2R34lineENS_5planeEEEE, max count = 4195850
  _ZNSt3__116reverse_iteratorIPNS_7variantIJNS_9monostateEN8geometry6point_ILm3EEENS_6vectorIS5_NS_9allocatorIS5_EEEENS3_2R34lineENS3_5planeEEEEEppB8ue170006Ev, max count = 4161532
  _ZN8geometry6point_ILm3EEC1ERKS1_, max count = 4152627
  _ZNSt3__119__holds_alternativeB8ue170006ILm4EJNS_9monostateEN8geometry6point_ILm3EEENS_6vectorIS4_NS_9allocatorIS4_EEEENS2_2R34lineENS2_5planeEEEEbRKNS_7variantIJDpT0_EEE, max count = 4062698
  _ZNSt3__119__holds_alternativeB8ue170006ILm3EJNS_9monostateEN8geometry6point_ILm3EEENS_6vectorIS4_NS_9allocatorIS4_EEEENS2_2R34lineENS2_5planeEEEEbRKNS_7variantIJDpT0_EEE, max count = 4062435
  _ZNSt3__119__holds_alternativeB8ue170006ILm2EJNS_9monostateEN8geometry6point_ILm3EEENS_6vectorIS4_NS_9allocatorIS4_EEEENS2_2R34lineENS2_5planeEEEEbRKNS_7variantIJDpT0_EEE, max count = 4060583
  _ZNSt3__117holds_alternativeB8ue170006IN8geometry5planeEJNS_9monostateENS1_6point_ILm3EEENS_6vectorIS5_NS_9allocatorIS5_EEEENS1_2R34lineES2_EEEbRKNS_7variantIJDpT0_EEE, max count = 4060498
  _ZNSt3__117holds_alternativeB8ue170006IN8geometry2R34lineEJNS_9monostateENS1_6point_ILm3EEENS_6vectorIS6_NS_9allocatorIS6_EEEES3_NS1_5planeEEEEbRKNS_7variantIJDpT0_EEE, max count = 4057943
  _ZNSt3__117holds_alternativeB8ue170006INS_6vectorIN8geometry6point_ILm3EEENS_9allocatorIS4_EEEEJNS_9monostateES4_S7_NS2_2R34lineENS2_5planeEEEEbRKNS_7variantIJDpT0_EEE, max count = 4057254
  _ZNSt3__112__to_addressB8ue170006IN8raytrace5colorEEEPT_S4_, max count = 3733055
  _ZNSt3__15clampB8ue170006IdEERKT_S3_S3_S3_, max count = 3710547
  _ZNSt3__15clampB8ue170006IdNS_6__lessIvvEEEERKT_S5_S5_S5_T0_, max count = 3709852
  _ZNKSt3__122__compressed_pair_elemIPNS_7variantIJNS_9monostateEN8geometry6point_ILm3EEENS_6vectorIS5_NS_9allocatorIS5_EEEENS3_2R34lineENS3_5planeEEEELi0ELb0EE5__getB8ue170006Ev, max count = 3709307
  _ZNKSt3__16vectorINS_7variantIJNS_9monostateEN8geometry6point_ILm3EEENS0_IS5_NS_9allocatorIS5_EEEENS3_2R34lineENS3_5planeEEEENS6_ISC_EEE8capacityB8ue170006Ev, max count = 3703009
  _ZNSt3__116__variant_detail17__copy_assignmentINS0_8__traitsIJNS_9monostateEN8geometry6point_ILm3EEENS_6vectorIS6_NS_9allocatorIS6_EEEENS4_2R34lineENS4_5planeEEEELNS0_6_TraitE1EED2Ev, max count = 3693052
  _ZNSt3__17variantIJNS_9monostateEN8geometry6point_ILm3EEENS_6vectorIS4_NS_9allocatorIS4_EEEENS2_2R34lineENS2_5planeEEED2B8ue170006Ev, max count = 3692852
  _ZNKSt3__16vectorINS_7variantIJNS_9monostateEN8geometry6point_ILm3EEENS0_IS5_NS_9allocatorIS5_EEEENS3_2R34lineENS3_5planeEEEENS6_ISC_EEE9__end_capB8ue170006Ev, max count = 3679311
  _ZNKSt3__117__compressed_pairIPNS_7variantIJNS_9monostateEN8geometry6point_ILm3EEENS_6vectorIS5_NS_9allocatorIS5_EEEENS3_2R34lineENS3_5planeEEEENS7_ISD_EEE5firstB8ue170006Ev, max count = 3679235
  _ZNSt3__116__variant_detail17__move_assignmentINS0_8__traitsIJNS_9monostateEN8geometry6point_ILm3EEENS_6vectorIS6_NS_9allocatorIS6_EEEENS4_2R34lineENS4_5planeEEEELNS0_6_TraitE1EED2Ev, max count = 3673851
  _ZNSt3__122__compressed_pair_elemIPNS_7variantIJNS_9monostateEN8geometry6point_ILm3EEENS_6vectorIS5_NS_9allocatorIS5_EEEENS3_2R34lineENS3_5planeEEEELi0ELb0EE5__getB8ue170006Ev, max count = 3661537
  _ZNSt3__116__variant_detail18__move_constructorINS0_8__traitsIJNS_9monostateEN8geometry6point_ILm3EEENS_6vectorIS6_NS_9allocatorIS6_EEEENS4_2R34lineENS4_5planeEEEELNS0_6_TraitE1EED2Ev, max count = 3660296
  _ZNSt3__116__variant_detail6__dtorINS0_8__traitsIJNS_9monostateEN8geometry6point_ILm3EEENS_6vectorIS6_NS_9allocatorIS6_EEEENS4_2R34lineENS4_5planeEEEELNS0_6_TraitE1EED2Ev, max count = 3660066
  _ZNSt3__116__variant_detail18__copy_constructorINS0_8__traitsIJNS_9monostateEN8geometry6point_ILm3EEENS_6vectorIS6_NS_9allocatorIS6_EEEENS4_2R34lineENS4_5planeEEEELNS0_6_TraitE1EED2Ev, max count = 3637631
  _ZNSt3__116__variant_detail12__visitation6__base11__visit_altB8ue170006IZNS0_6__dtorINS0_8__traitsIJNS_9monostateEN8geometry6point_ILm3EEENS_6vectorIS9_NS_9allocatorIS9_EEEENS7_2R34lineENS7_5planeEEEELNS0_6_TraitE1EE9__destroyB8ue170006EvEUlRT_E_JRSJ_EEEDcOSK_DpOT0_, max count = 3582461
  _ZNSt3__116__variant_detail12__visitation6__base4__atB8ue170006IPFvOZNS0_6__dtorINS0_8__traitsIJNS_9monostateEN8geometry6point_ILm3EEENS_6vectorIS9_NS_9allocatorIS9_EEEENS7_2R34lineENS7_5planeEEEELNS0_6_TraitE1EE9__destroyB8ue170006EvEUlRT_E_RNS0_6__baseILSI_1EJS6_S9_SD_SF_SG_EEEEEERKSK_SU_, max count = 3547156
  _ZNKSt3__18__farrayIPFvOZNS_16__variant_detail6__dtorINS1_8__traitsIJNS_9monostateEN8geometry6point_ILm3EEENS_6vectorIS7_NS_9allocatorIS7_EEEENS5_2R34lineENS5_5planeEEEELNS1_6_TraitE1EE9__destroyB8ue170006EvEUlRT_E_RNS1_6__baseILSG_1EJS4_S7_SB_SD_SE_EEEELm5EEixB8ue170006Em, max count = 3546573
  _ZNSt3__116__variant_detail12__visitation6__base4__atB8ue170006IPFvOZNS0_6__dtorINS0_8__traitsIJNS_9monostateEN8geometry6point_ILm3EEENS_6vectorIS9_NS_9allocatorIS9_EEEENS7_2R34lineENS7_5planeEEEELNS0_6_TraitE1EE9__destroyB8ue170006EvEUlRT_E_RNS0_6__baseILSI_1EJS6_S9_SD_SF_SG_EEEELm5EJEEEODaRKNS_8__farrayISK_XT0_EEEmDpT1_, max count = 3535801
  _ZNSt3__116__variant_detail7__unionILNS0_6_TraitE1ELm0EJNS_9monostateEN8geometry6point_ILm3EEENS_6vectorIS6_NS_9allocatorIS6_EEEENS4_2R34lineENS4_5planeEEED2Ev, max count = 3460947
  _ZNK8geometry7vector_IdLm3EE9quadranceEv, max count = 3332697
  _ZNSt3__116__variant_detail7__unionILNS0_6_TraitE1ELm0EJNS_9monostateEN8geometry6point_ILm3EEENS_6vectorIS6_NS_9allocatorIS6_EEEENS4_2R34lineENS4_5planeEEEC2B8ue170006ENS0_13__valueless_tE, max count = 3289400
  _ZNSt3__116__variant_detail12__visitation6__base12__dispatcherIJLm0EEE10__dispatchB8ue170006IOZNS0_6__dtorINS0_8__traitsIJNS_9monostateEN8geometry6point_ILm3EEENS_6vectorISB_NS_9allocatorISB_EEEENS9_2R34lineENS9_5planeEEEELNS0_6_TraitE1EE9__destroyB8ue170006EvEUlRT_E_JRNS0_6__baseILSK_1EJS8_SB_SF_SH_SI_EEEEEEDcSM_DpT0_, max count = 3287540
  _ZNSt3__116__variant_detail6__baseILNS0_6_TraitE1EJNS_9monostateEN8geometry6point_ILm3EEENS_6vectorIS6_NS_9allocatorIS6_EEEENS4_2R34lineENS4_5planeEEEC2B8ue170006ENS0_13__valueless_tE, max count = 3273079
  _ZZNSt3__116__variant_detail6__dtorINS0_8__traitsIJNS_9monostateEN8geometry6point_ILm3EEENS_6vectorIS6_NS_9allocatorIS6_EEEENS4_2R34lineENS4_5planeEEEELNS0_6_TraitE1EE9__destroyB8ue170006EvENKUlRT_E_clINS0_5__altILm0ES3_EEEEDaSI_, max count = 3269998
  _ZNSt3__18__invokeB8ue170006IZNS_16__variant_detail6__dtorINS1_8__traitsIJNS_9monostateEN8geometry6point_ILm3EEENS_6vectorIS7_NS_9allocatorIS7_EEEENS5_2R34lineENS5_5planeEEEELNS1_6_TraitE1EE9__destroyB8ue170006EvEUlRT_E_JRNS1_5__altILm0ES4_EEEEEDTclclsr3stdE7declvalISI_EEspclsr3stdE7declvalIT0_EEEEOSI_DpOSO_, max count = 3269484
  _ZN8raytrace5color5clampEv, max count = 3241472
  _ZNKSt3__111__wrap_iterIPKPKN8raytrace7objects7object_ILm3EEEE4baseB8ue170006Ev, max count = 3230726
  _ZNSt3__122__compressed_pair_elemIPdLi0ELb0EE5__getB8ue170006Ev, max count = 3159802
  _ZNSt3__16vectorINS_7variantIJNS_9monostateEN8geometry6point_ILm3EEENS0_IS5_NS_9allocatorIS5_EEEENS3_2R34lineENS3_5planeEEEENS6_ISC_EEE7__allocB8ue170006Ev, max count = 3121236
  _ZNSt3__122__compressed_pair_elemINS_9allocatorINS_7variantIJNS_9monostateEN8geometry6point_ILm3EEENS_6vectorIS6_NS1_IS6_EEEENS4_2R34lineENS4_5planeEEEEEELi1ELb1EE5__getB8ue170006Ev, max count = 3109033
  _ZNSt3__117__compressed_pairIPNS_7variantIJNS_9monostateEN8geometry6point_ILm3EEENS_6vectorIS5_NS_9allocatorIS5_EEEENS3_2R34lineENS3_5planeEEEENS7_ISD_EEE6secondB8ue170006Ev, max count = 3108832
  _ZN5basal9exception8throw_ifEbPKcmS2_z, max count = 3002376
  _ZN8geometry8multiplyERKNS_7vector_IdLm3EEEd, max count = 2970487
  _ZN8geometry9operatorsmlIdLm3EEENS_7vector_IT_XT0_EEEdRKS4_, max count = 2969435
  _ZNSt3__122__compressed_pair_elemIPdLi0ELb0EEC2B8ue170006IDnvEEOT_, max count = 2945691
  _ZNK8geometry4ray_ILm3EE14distance_alongEd, max count = 2930978
  _ZN8geometryplERKNS_6point_ILm3EEERKNS_7vector_IdLm3EEE, max count = 2915263
  _ZNSt3__116allocator_traitsINS_9allocatorINS_7variantIJNS_9monostateEN8geometry6point_ILm3EEENS_6vectorIS6_NS1_IS6_EEEENS4_2R34lineENS4_5planeEEEEEEE7destroyB8ue170006ISD_vEEvRSE_PT_, max count = 2815714
  _ZNSt3__19allocatorINS_7variantIJNS_9monostateEN8geometry6point_ILm3EEENS_6vectorIS5_NS0_IS5_EEEENS3_2R34lineENS3_5planeEEEEE7destroyB8ue170006EPSC_, max count = 2815654
  _ZNKSt3__116reverse_iteratorIPdE4baseB8ue170006Ev, max count = 2798756
  _ZNKSt3__16vectorIN8raytrace5colorENS_9allocatorIS2_EEE4dataB8ue170006Ev, max count = 2747480
Total number of blocks: 19458
Total count: 1321943890
Detailed summary:
1 blocks with count >= 41547035 account for 1 percentage of the total counts.
4 blocks with count >= 37897191 account for 10 percentage of the total counts.
8 blocks with count >= 22370480 account for 20 percentage of the total counts.
17 blocks with count >= 9196059 account for 30 percentage of the total counts.
35 blocks with count >= 5682127 account for 40 percentage of the total counts.
63 blocks with count >= 4057254 account for 50 percentage of the total counts.
102 blocks with count >= 2930978 account for 60 percentage of the total counts.
157 blocks with count >= 2132633 account for 70 percentage of the total counts.
233 blocks with count >= 1384884 account for 80 percentage of the total counts.
372 blocks with count >= 661727 account for 90 percentage of the total counts.
516 blocks with count >= 330096 account for 95 percentage of the total counts.
857 blocks with count >= 58577 account for 99 percentage of the total counts.
1189 blocks with count >= 11270 account for 99.9 percentage of the total counts.
1379 blocks with count >= 1360 account for 99.99 percentage of the total counts.
1991 blocks with count >= 32 account for 99.999 percentage of the total counts.
3025 blocks with count >= 3 account for 99.9999 percentage of the total counts.
